target datalayout = "e-m:e-p270:32:32-p271:32:32-p272:64:64-i64:64-i128:128-f80:128-n8:16:32:64-S128"
target triple = "x86_64-pc-linux-gnu"

%struct.wtap = type { ptr, ptr, i8, i32, i32, ptr, ptr, ptr, i32, ptr, ptr, ptr, ptr, ptr, ptr, ptr, ptr, ptr, ptr, i32, i32, ptr, ptr, ptr, ptr }
%struct.btsnooprec_hdr = type { i32, i32, i32, i32, i64 }
%struct.wtap_rec = type { i32, i32, i32, %struct.nstime_t, i32, %struct.nstime_t, i8, %union.anon, ptr, i8, %struct.Buffer, %struct.Buffer }
%struct.nstime_t = type { i64, i32 }
%union.anon = type { %struct.wtap_packet_header }
%struct.wtap_packet_header = type { i32, i32, i32, i32, %union.wtap_pseudo_header }
%union.wtap_pseudo_header = type { %struct.erf_mc_phdr }
%struct.erf_mc_phdr = type { %struct.erf_phdr, [16 x %struct.erf_ehdr], %union.anon.1 }
%struct.erf_phdr = type { i64, i8, i8, i16, i16, i16 }
%struct.erf_ehdr = type { i64 }
%union.anon.1 = type { i32 }
%struct.Buffer = type { ptr, i64, i64, i64 }
%struct.p2p_phdr = type { i8 }
%struct.bthci_phdr = type { i8, i32 }
%struct.btmon_phdr = type { i16, i16 }

@.str.6 = private unnamed_addr constant [60 x i8] c"btsnoop: File has %u-byte packet, bigger than maximum of %u\00", align 1

; Function Attrs: null_pointer_is_valid sspstrong uwtable
define internal zeroext i1 @btsnoop_read_record(ptr noundef %0, ptr noundef %1, ptr noundef %2, ptr noundef %3, ptr noundef %4) #0 {
  %6 = alloca i1, align 1
  %7 = alloca ptr, align 8
  %8 = alloca ptr, align 8
  %9 = alloca ptr, align 8
  %10 = alloca ptr, align 8
  %11 = alloca ptr, align 8
  %12 = alloca %struct.btsnooprec_hdr, align 8
  %13 = alloca i32, align 4
  %14 = alloca i32, align 4
  %15 = alloca i32, align 4
  %16 = alloca i64, align 8
  %17 = alloca i32, align 4
  %18 = alloca i32, align 4
  %19 = alloca i32, align 4
  %20 = alloca i32, align 4
  %21 = alloca i32, align 4
  %22 = alloca i32, align 4
  %23 = alloca i32, align 4
  %24 = alloca i32, align 4
  %25 = alloca i32, align 4
  %26 = alloca i32, align 4
  %27 = alloca i64, align 8
  %28 = alloca i64, align 8
  %29 = alloca i64, align 8
  store ptr %0, ptr %7, align 8
  store ptr %1, ptr %8, align 8
  store ptr %2, ptr %9, align 8
  store ptr %3, ptr %10, align 8
  store ptr %4, ptr %11, align 8
  call void @llvm.lifetime.start.p0(i64 24, ptr %12) #6
  call void @llvm.lifetime.start.p0(i64 4, ptr %13) #6
  call void @llvm.lifetime.start.p0(i64 4, ptr %14) #6
  call void @llvm.lifetime.start.p0(i64 4, ptr %15) #6
  call void @llvm.lifetime.start.p0(i64 8, ptr %16) #6
  %30 = load ptr, ptr %8, align 8
  %31 = load ptr, ptr %10, align 8
  %32 = load ptr, ptr %11, align 8
  %33 = call zeroext i1 @wtap_read_bytes_or_eof(ptr noundef %30, ptr noundef %12, i32 noundef 24, ptr noundef %31, ptr noundef %32)
  br i1 %33, label %35, label %34

34:                                               ; preds = %5
  store i1 false, ptr %6, align 1
  store i32 1, ptr %17, align 4
  br label %286

35:                                               ; preds = %5
  call void @llvm.lifetime.start.p0(i64 4, ptr %18) #6
  call void @llvm.lifetime.start.p0(i64 4, ptr %19) #6
  %36 = getelementptr inbounds nuw %struct.btsnooprec_hdr, ptr %12, i32 0, i32 1
  %37 = load i32, ptr %36, align 4
  store i32 %37, ptr %19, align 4
  %38 = load i32, ptr %19, align 4
  %39 = call i1 @llvm.is.constant.i32(i32 %38)
  br i1 %39, label %40, label %56

40:                                               ; preds = %35
  %41 = load i32, ptr %19, align 4
  %42 = and i32 %41, 255
  %43 = shl i32 %42, 24
  %44 = load i32, ptr %19, align 4
  %45 = and i32 %44, 65280
  %46 = shl i32 %45, 8
  %47 = or i32 %43, %46
  %48 = load i32, ptr %19, align 4
  %49 = and i32 %48, 16711680
  %50 = lshr i32 %49, 8
  %51 = or i32 %47, %50
  %52 = load i32, ptr %19, align 4
  %53 = and i32 %52, -16777216
  %54 = lshr i32 %53, 24
  %55 = or i32 %51, %54
  store i32 %55, ptr %18, align 4
  br label %59

56:                                               ; preds = %35
  %57 = load i32, ptr %19, align 4
  %58 = call i32 asm "bswapl $0", "=r,0,~{dirflag},~{fpsr},~{flags}"(i32 %57) #8, !srcloc !8
  store i32 %58, ptr %18, align 4
  br label %59

59:                                               ; preds = %56, %40
  %60 = load i32, ptr %18, align 4
  store i32 %60, ptr %20, align 4
  call void @llvm.lifetime.end.p0(i64 4, ptr %19) #6
  call void @llvm.lifetime.end.p0(i64 4, ptr %18) #6
  %61 = load i32, ptr %20, align 4
  store i32 %61, ptr %13, align 4
  call void @llvm.lifetime.start.p0(i64 4, ptr %21) #6
  call void @llvm.lifetime.start.p0(i64 4, ptr %22) #6
  %62 = getelementptr inbounds nuw %struct.btsnooprec_hdr, ptr %12, i32 0, i32 0
  %63 = load i32, ptr %62, align 8
  store i32 %63, ptr %22, align 4
  %64 = load i32, ptr %22, align 4
  %65 = call i1 @llvm.is.constant.i32(i32 %64)
  br i1 %65, label %66, label %82

66:                                               ; preds = %59
  %67 = load i32, ptr %22, align 4
  %68 = and i32 %67, 255
  %69 = shl i32 %68, 24
  %70 = load i32, ptr %22, align 4
  %71 = and i32 %70, 65280
  %72 = shl i32 %71, 8
  %73 = or i32 %69, %72
  %74 = load i32, ptr %22, align 4
  %75 = and i32 %74, 16711680
  %76 = lshr i32 %75, 8
  %77 = or i32 %73, %76
  %78 = load i32, ptr %22, align 4
  %79 = and i32 %78, -16777216
  %80 = lshr i32 %79, 24
  %81 = or i32 %77, %80
  store i32 %81, ptr %21, align 4
  br label %85

82:                                               ; preds = %59
  %83 = load i32, ptr %22, align 4
  %84 = call i32 asm "bswapl $0", "=r,0,~{dirflag},~{fpsr},~{flags}"(i32 %83) #8, !srcloc !9
  store i32 %84, ptr %21, align 4
  br label %85

85:                                               ; preds = %82, %66
  %86 = load i32, ptr %21, align 4
  store i32 %86, ptr %23, align 4
  call void @llvm.lifetime.end.p0(i64 4, ptr %22) #6
  call void @llvm.lifetime.end.p0(i64 4, ptr %21) #6
  %87 = load i32, ptr %23, align 4
  store i32 %87, ptr %15, align 4
  call void @llvm.lifetime.start.p0(i64 4, ptr %24) #6
  call void @llvm.lifetime.start.p0(i64 4, ptr %25) #6
  %88 = getelementptr inbounds nuw %struct.btsnooprec_hdr, ptr %12, i32 0, i32 2
  %89 = load i32, ptr %88, align 8
  store i32 %89, ptr %25, align 4
  %90 = load i32, ptr %25, align 4
  %91 = call i1 @llvm.is.constant.i32(i32 %90)
  br i1 %91, label %92, label %108

92:                                               ; preds = %85
  %93 = load i32, ptr %25, align 4
  %94 = and i32 %93, 255
  %95 = shl i32 %94, 24
  %96 = load i32, ptr %25, align 4
  %97 = and i32 %96, 65280
  %98 = shl i32 %97, 8
  %99 = or i32 %95, %98
  %100 = load i32, ptr %25, align 4
  %101 = and i32 %100, 16711680
  %102 = lshr i32 %101, 8
  %103 = or i32 %99, %102
  %104 = load i32, ptr %25, align 4
  %105 = and i32 %104, -16777216
  %106 = lshr i32 %105, 24
  %107 = or i32 %103, %106
  store i32 %107, ptr %24, align 4
  br label %111

108:                                              ; preds = %85
  %109 = load i32, ptr %25, align 4
  %110 = call i32 asm "bswapl $0", "=r,0,~{dirflag},~{fpsr},~{flags}"(i32 %109) #8, !srcloc !10
  store i32 %110, ptr %24, align 4
  br label %111

111:                                              ; preds = %108, %92
  %112 = load i32, ptr %24, align 4
  store i32 %112, ptr %26, align 4
  call void @llvm.lifetime.end.p0(i64 4, ptr %25) #6
  call void @llvm.lifetime.end.p0(i64 4, ptr %24) #6
  %113 = load i32, ptr %26, align 4
  store i32 %113, ptr %14, align 4
  %114 = load i32, ptr %13, align 4
  %115 = icmp ugt i32 %114, 262144
  br i1 %115, label %116, label %121

116:                                              ; preds = %111
  %117 = load ptr, ptr %10, align 8
  store i32 -13, ptr %117, align 4
  %118 = load i32, ptr %13, align 4
  %119 = call noalias ptr (ptr, ptr, ...) @wmem_strdup_printf(ptr noundef null, ptr noundef @.str.6, i32 noundef %118, i32 noundef 262144)
  %120 = load ptr, ptr %11, align 8
  store ptr %119, ptr %120, align 8
  store i1 false, ptr %6, align 1
  store i32 1, ptr %17, align 4
  br label %286

121:                                              ; preds = %111
  call void @llvm.lifetime.start.p0(i64 8, ptr %27) #6
  call void @llvm.lifetime.start.p0(i64 8, ptr %28) #6
  %122 = getelementptr inbounds nuw %struct.btsnooprec_hdr, ptr %12, i32 0, i32 4
  %123 = load i64, ptr %122, align 8
  store i64 %123, ptr %28, align 8
  %124 = load i64, ptr %28, align 8
  %125 = call i1 @llvm.is.constant.i64(i64 %124)
  br i1 %125, label %126, label %158

126:                                              ; preds = %121
  %127 = load i64, ptr %28, align 8
  %128 = and i64 %127, 255
  %129 = shl i64 %128, 56
  %130 = load i64, ptr %28, align 8
  %131 = and i64 %130, 65280
  %132 = shl i64 %131, 40
  %133 = or i64 %129, %132
  %134 = load i64, ptr %28, align 8
  %135 = and i64 %134, 16711680
  %136 = shl i64 %135, 24
  %137 = or i64 %133, %136
  %138 = load i64, ptr %28, align 8
  %139 = and i64 %138, 4278190080
  %140 = shl i64 %139, 8
  %141 = or i64 %137, %140
  %142 = load i64, ptr %28, align 8
  %143 = and i64 %142, 1095216660480
  %144 = lshr i64 %143, 8
  %145 = or i64 %141, %144
  %146 = load i64, ptr %28, align 8
  %147 = and i64 %146, 280375465082880
  %148 = lshr i64 %147, 24
  %149 = or i64 %145, %148
  %150 = load i64, ptr %28, align 8
  %151 = and i64 %150, 71776119061217280
  %152 = lshr i64 %151, 40
  %153 = or i64 %149, %152
  %154 = load i64, ptr %28, align 8
  %155 = and i64 %154, -72057594037927936
  %156 = lshr i64 %155, 56
  %157 = or i64 %153, %156
  store i64 %157, ptr %27, align 8
  br label %161

158:                                              ; preds = %121
  %159 = load i64, ptr %28, align 8
  %160 = call i64 asm "bswapq $0", "=r,0,~{dirflag},~{fpsr},~{flags}"(i64 %159) #8, !srcloc !11
  store i64 %160, ptr %27, align 8
  br label %161

161:                                              ; preds = %158, %126
  %162 = load i64, ptr %27, align 8
  store i64 %162, ptr %29, align 8
  call void @llvm.lifetime.end.p0(i64 8, ptr %28) #6
  call void @llvm.lifetime.end.p0(i64 8, ptr %27) #6
  %163 = load i64, ptr %29, align 8
  store i64 %163, ptr %16, align 8
  %164 = load i64, ptr %16, align 8
  %165 = sub i64 %164, 62168256000000000
  store i64 %165, ptr %16, align 8
  %166 = load ptr, ptr %9, align 8
  %167 = getelementptr inbounds nuw %struct.wtap_rec, ptr %166, i32 0, i32 0
  store i32 0, ptr %167, align 8
  %168 = call ptr @wtap_block_create(i32 noundef 5)
  %169 = load ptr, ptr %9, align 8
  %170 = getelementptr inbounds nuw %struct.wtap_rec, ptr %169, i32 0, i32 8
  store ptr %168, ptr %170, align 8
  %171 = load ptr, ptr %9, align 8
  %172 = getelementptr inbounds nuw %struct.wtap_rec, ptr %171, i32 0, i32 1
  store i32 3, ptr %172, align 4
  %173 = load i64, ptr %16, align 8
  %174 = sdiv i64 %173, 1000000
  %175 = trunc i64 %174 to i32
  %176 = zext i32 %175 to i64
  %177 = load ptr, ptr %9, align 8
  %178 = getelementptr inbounds nuw %struct.wtap_rec, ptr %177, i32 0, i32 3
  %179 = getelementptr inbounds nuw %struct.nstime_t, ptr %178, i32 0, i32 0
  store i64 %176, ptr %179, align 8
  %180 = load i64, ptr %16, align 8
  %181 = srem i64 %180, 1000000
  %182 = mul i64 %181, 1000
  %183 = trunc i64 %182 to i32
  %184 = load ptr, ptr %9, align 8
  %185 = getelementptr inbounds nuw %struct.wtap_rec, ptr %184, i32 0, i32 3
  %186 = getelementptr inbounds nuw %struct.nstime_t, ptr %185, i32 0, i32 1
  store i32 %183, ptr %186, align 8
  %187 = load i32, ptr %13, align 4
  %188 = load ptr, ptr %9, align 8
  %189 = getelementptr inbounds nuw %struct.wtap_rec, ptr %188, i32 0, i32 7
  %190 = getelementptr inbounds nuw %struct.wtap_packet_header, ptr %189, i32 0, i32 0
  store i32 %187, ptr %190, align 8
  %191 = load i32, ptr %15, align 4
  %192 = load ptr, ptr %9, align 8
  %193 = getelementptr inbounds nuw %struct.wtap_rec, ptr %192, i32 0, i32 7
  %194 = getelementptr inbounds nuw %struct.wtap_packet_header, ptr %193, i32 0, i32 1
  store i32 %191, ptr %194, align 4
  %195 = load ptr, ptr %7, align 8
  %196 = getelementptr inbounds nuw %struct.wtap, ptr %195, i32 0, i32 19
  %197 = load i32, ptr %196, align 8
  %198 = icmp eq i32 %197, 99
  br i1 %198, label %199, label %210

199:                                              ; preds = %161
  %200 = load i32, ptr %14, align 4
  %201 = and i32 %200, 1
  %202 = icmp ne i32 %201, 0
  %203 = select i1 %202, i32 0, i32 1
  %204 = icmp ne i32 %203, 0
  %205 = load ptr, ptr %9, align 8
  %206 = getelementptr inbounds nuw %struct.wtap_rec, ptr %205, i32 0, i32 7
  %207 = getelementptr inbounds nuw %struct.wtap_packet_header, ptr %206, i32 0, i32 4
  %208 = getelementptr inbounds nuw %struct.p2p_phdr, ptr %207, i32 0, i32 0
  %209 = zext i1 %204 to i8
  store i8 %209, ptr %208, align 8
  br label %275

210:                                              ; preds = %161
  %211 = load ptr, ptr %7, align 8
  %212 = getelementptr inbounds nuw %struct.wtap, ptr %211, i32 0, i32 19
  %213 = load i32, ptr %212, align 8
  %214 = icmp eq i32 %213, 102
  br i1 %214, label %215, label %253

215:                                              ; preds = %210
  %216 = load i32, ptr %14, align 4
  %217 = and i32 %216, 1
  %218 = icmp ne i32 %217, 0
  %219 = select i1 %218, i32 0, i32 1
  %220 = icmp ne i32 %219, 0
  %221 = load ptr, ptr %9, align 8
  %222 = getelementptr inbounds nuw %struct.wtap_rec, ptr %221, i32 0, i32 7
  %223 = getelementptr inbounds nuw %struct.wtap_packet_header, ptr %222, i32 0, i32 4
  %224 = getelementptr inbounds nuw %struct.bthci_phdr, ptr %223, i32 0, i32 0
  %225 = zext i1 %220 to i8
  store i8 %225, ptr %224, align 8
  %226 = load i32, ptr %14, align 4
  %227 = and i32 %226, 2
  %228 = icmp ne i32 %227, 0
  br i1 %228, label %229, label %247

229:                                              ; preds = %215
  %230 = load ptr, ptr %9, align 8
  %231 = getelementptr inbounds nuw %struct.wtap_rec, ptr %230, i32 0, i32 7
  %232 = getelementptr inbounds nuw %struct.wtap_packet_header, ptr %231, i32 0, i32 4
  %233 = getelementptr inbounds nuw %struct.bthci_phdr, ptr %232, i32 0, i32 0
  %234 = load i8, ptr %233, align 8, !range !12, !noundef !13
  %235 = trunc i8 %234 to i1
  br i1 %235, label %236, label %241

236:                                              ; preds = %229
  %237 = load ptr, ptr %9, align 8
  %238 = getelementptr inbounds nuw %struct.wtap_rec, ptr %237, i32 0, i32 7
  %239 = getelementptr inbounds nuw %struct.wtap_packet_header, ptr %238, i32 0, i32 4
  %240 = getelementptr inbounds nuw %struct.bthci_phdr, ptr %239, i32 0, i32 1
  store i32 1, ptr %240, align 4
  br label %246

241:                                              ; preds = %229
  %242 = load ptr, ptr %9, align 8
  %243 = getelementptr inbounds nuw %struct.wtap_rec, ptr %242, i32 0, i32 7
  %244 = getelementptr inbounds nuw %struct.wtap_packet_header, ptr %243, i32 0, i32 4
  %245 = getelementptr inbounds nuw %struct.bthci_phdr, ptr %244, i32 0, i32 1
  store i32 4, ptr %245, align 4
  br label %246

246:                                              ; preds = %241, %236
  br label %252

247:                                              ; preds = %215
  %248 = load ptr, ptr %9, align 8
  %249 = getelementptr inbounds nuw %struct.wtap_rec, ptr %248, i32 0, i32 7
  %250 = getelementptr inbounds nuw %struct.wtap_packet_header, ptr %249, i32 0, i32 4
  %251 = getelementptr inbounds nuw %struct.bthci_phdr, ptr %250, i32 0, i32 1
  store i32 2, ptr %251, align 4
  br label %252

252:                                              ; preds = %247, %246
  br label %274

253:                                              ; preds = %210
  %254 = load ptr, ptr %7, align 8
  %255 = getelementptr inbounds nuw %struct.wtap, ptr %254, i32 0, i32 19
  %256 = load i32, ptr %255, align 8
  %257 = icmp eq i32 %256, 159
  br i1 %257, label %258, label %273

258:                                              ; preds = %253
  %259 = load i32, ptr %14, align 4
  %260 = and i32 %259, 65535
  %261 = trunc i32 %260 to i16
  %262 = load ptr, ptr %9, align 8
  %263 = getelementptr inbounds nuw %struct.wtap_rec, ptr %262, i32 0, i32 7
  %264 = getelementptr inbounds nuw %struct.wtap_packet_header, ptr %263, i32 0, i32 4
  %265 = getelementptr inbounds nuw %struct.btmon_phdr, ptr %264, i32 0, i32 1
  store i16 %261, ptr %265, align 2
  %266 = load i32, ptr %14, align 4
  %267 = lshr i32 %266, 16
  %268 = trunc i32 %267 to i16
  %269 = load ptr, ptr %9, align 8
  %270 = getelementptr inbounds nuw %struct.wtap_rec, ptr %269, i32 0, i32 7
  %271 = getelementptr inbounds nuw %struct.wtap_packet_header, ptr %270, i32 0, i32 4
  %272 = getelementptr inbounds nuw %struct.btmon_phdr, ptr %271, i32 0, i32 0
  store i16 %268, ptr %272, align 8
  br label %273

273:                                              ; preds = %258, %253
  br label %274

274:                                              ; preds = %273, %252
  br label %275

275:                                              ; preds = %274, %199
  %276 = load ptr, ptr %8, align 8
  %277 = load ptr, ptr %9, align 8
  %278 = getelementptr inbounds nuw %struct.wtap_rec, ptr %277, i32 0, i32 11
  %279 = load ptr, ptr %9, align 8
  %280 = getelementptr inbounds nuw %struct.wtap_rec, ptr %279, i32 0, i32 7
  %281 = getelementptr inbounds nuw %struct.wtap_packet_header, ptr %280, i32 0, i32 0
  %282 = load i32, ptr %281, align 8
  %283 = load ptr, ptr %10, align 8
  %284 = load ptr, ptr %11, align 8
  %285 = call zeroext i1 @wtap_read_bytes_buffer(ptr noundef %276, ptr noundef %278, i32 noundef %282, ptr noundef %283, ptr noundef %284)
  store i1 %285, ptr %6, align 1
  store i32 1, ptr %17, align 4
  br label %286

286:                                              ; preds = %275, %116, %34
  call void @llvm.lifetime.end.p0(i64 8, ptr %16) #6
  call void @llvm.lifetime.end.p0(i64 4, ptr %15) #6
  call void @llvm.lifetime.end.p0(i64 4, ptr %14) #6
  call void @llvm.lifetime.end.p0(i64 4, ptr %13) #6
  call void @llvm.lifetime.end.p0(i64 24, ptr %12) #6
  %287 = load i1, ptr %6, align 1
  ret i1 %287
}