; Function Attrs: null_pointer_is_valid sspstrong uwtable
define internal fastcc zeroext i1 @btsnoop_read_record(ptr noundef readonly captures(none) %0, ptr noundef %1, ptr noundef %2, ptr noundef %3, ptr noundef %4) unnamed_addr #0 {
  %6 = alloca %struct.btsnooprec_hdr, align 8
  call void @llvm.lifetime.start.p0(i64 24, ptr nonnull %6) #5
  %7 = call zeroext i1 @wtap_read_bytes_or_eof(ptr noundef %1, ptr noundef nonnull %6, i32 noundef 24, ptr noundef %3, ptr noundef %4)
  br i1 %7, label %8, label %66

8:                                                ; preds = %5
  %9 = getelementptr inbounds nuw i8, ptr %6, i64 4
  %10 = load i32, ptr %9, align 4
  %11 = call i32 asm "bswapl $0", "=r,0,~{dirflag},~{fpsr},~{flags}"(i32 %10) #6, !srcloc !8
  %12 = load i32, ptr %6, align 8
  %13 = call i32 asm "bswapl $0", "=r,0,~{dirflag},~{fpsr},~{flags}"(i32 %12) #6, !srcloc !9
  %14 = getelementptr inbounds nuw i8, ptr %6, i64 8
  %15 = load i32, ptr %14, align 8
  %16 = call i32 asm "bswapl $0", "=r,0,~{dirflag},~{fpsr},~{flags}"(i32 %15) #6, !srcloc !10
  %17 = icmp ugt i32 %11, 262144
  br i1 %17, label %18, label %20

18:                                               ; preds = %8
  store i32 -13, ptr %3, align 4
  %19 = call noalias ptr (ptr, ptr, ...) @wmem_strdup_printf(ptr noundef null, ptr noundef nonnull @.str.6, i32 noundef %11, i32 noundef 262144)
  store ptr %19, ptr %4, align 8
  br label %66

20:                                               ; preds = %8
  %21 = getelementptr inbounds nuw i8, ptr %6, i64 16
  %22 = load i64, ptr %21, align 8
  %23 = call i64 asm "bswapq $0", "=r,0,~{dirflag},~{fpsr},~{flags}"(i64 %22) #6, !srcloc !11
  %24 = add i64 %23, -62168256000000000
  store i32 0, ptr %2, align 8
  %25 = call ptr @wtap_block_create(i32 noundef 5)
  %26 = getelementptr inbounds nuw i8, ptr %2, i64 232
  store ptr %25, ptr %26, align 8
  %27 = getelementptr inbounds nuw i8, ptr %2, i64 4
  store i32 3, ptr %27, align 4
  %28 = sdiv i64 %24, 1000000
  %29 = and i64 %28, 4294967295
  %30 = getelementptr inbounds nuw i8, ptr %2, i64 16
  store i64 %29, ptr %30, align 8
  %31 = srem i64 %24, 1000000
  %32 = trunc nsw i64 %31 to i32
  %33 = mul nsw i32 %32, 1000
  %34 = getelementptr inbounds nuw i8, ptr %2, i64 24
  store i32 %33, ptr %34, align 8
  %35 = getelementptr inbounds nuw i8, ptr %2, i64 64
  store i32 %11, ptr %35, align 8
  %36 = getelementptr inbounds nuw i8, ptr %2, i64 68
  store i32 %13, ptr %36, align 4
  %37 = getelementptr inbounds nuw i8, ptr %0, i64 144
  %38 = load i32, ptr %37, align 8
  switch i32 %38, label %63 [
    i32 99, label %39
    i32 102, label %44
    i32 159, label %57
  ]

39:                                               ; preds = %20
  %40 = getelementptr inbounds nuw i8, ptr %2, i64 80
  %41 = trunc i32 %16 to i8
  %42 = and i8 %41, 1
  %43 = xor i8 %42, 1
  store i8 %43, ptr %40, align 8
  br label %63

44:                                               ; preds = %20
  %45 = and i32 %16, 1
  %46 = getelementptr inbounds nuw i8, ptr %2, i64 80
  %47 = trunc nuw nsw i32 %45 to i8
  %48 = xor i8 %47, 1
  store i8 %48, ptr %46, align 8
  %49 = and i32 %16, 2
  %.not = icmp eq i32 %49, 0
  br i1 %.not, label %55, label %50

50:                                               ; preds = %44
  %51 = icmp eq i32 %45, 0
  %52 = getelementptr inbounds nuw i8, ptr %2, i64 84
  br i1 %51, label %53, label %54

53:                                               ; preds = %50
  store i32 1, ptr %52, align 4
  br label %63

54:                                               ; preds = %50
  store i32 4, ptr %52, align 4
  br label %63

55:                                               ; preds = %44
  %56 = getelementptr inbounds nuw i8, ptr %2, i64 84
  store i32 2, ptr %56, align 4
  br label %63

57:                                               ; preds = %20
  %58 = trunc i32 %16 to i16
  %59 = getelementptr inbounds nuw i8, ptr %2, i64 80
  %60 = getelementptr inbounds nuw i8, ptr %2, i64 82
  store i16 %58, ptr %60, align 2
  %61 = lshr i32 %16, 16
  %62 = trunc nuw i32 %61 to i16
  store i16 %62, ptr %59, align 8
  br label %63

63:                                               ; preds = %20, %53, %54, %55, %57, %39
  %64 = getelementptr inbounds nuw i8, ptr %2, i64 280
  %65 = call zeroext i1 @wtap_read_bytes_buffer(ptr noundef %1, ptr noundef nonnull %64, i32 noundef %11, ptr noundef %3, ptr noundef %4)
  br label %66

66:                                               ; preds = %5, %63, %18
  %.0 = phi i1 [ false, %18 ], [ %65, %63 ], [ false, %5 ]
  call void @llvm.lifetime.end.p0(i64 24, ptr nonnull %6) #5
  ret i1 %.0
}